; ModuleID = 'source-C-CXX/6/961.c'
source_filename = "source-C-CXX/6/961.c"
target datalayout = "e-m:e-p270:32:32-p271:32:32-p272:64:64-i64:64-f80:128-n8:16:32:64-S128"
target triple = "x86_64-pc-linux-gnu"

@.str = private unnamed_addr constant [3 x i8] c"%s\00", align 1

; Function Attrs: nounwind sspstrong uwtable
define dso_local i32 @main() local_unnamed_addr #0 {
  %1 = alloca [300 x i8], align 16
  %2 = alloca [300 x i8], align 16
  %3 = alloca [300 x i8], align 16
  %4 = getelementptr inbounds [300 x i8], [300 x i8]* %3, i64 0, i64 0
  %5 = alloca [300 x i8], align 16
  %6 = getelementptr inbounds [300 x i8], [300 x i8]* %1, i64 0, i64 0
  call void @llvm.lifetime.start.p0i8(i64 300, i8* nonnull %6) #7
  call void @llvm.memset.p0i8.i64(i8* noundef nonnull align 16 dereferenceable(300) %6, i8 0, i64 300, i1 false)
  %7 = getelementptr inbounds [300 x i8], [300 x i8]* %2, i64 0, i64 0
  call void @llvm.lifetime.start.p0i8(i64 300, i8* nonnull %7) #7
  call void @llvm.memset.p0i8.i64(i8* noundef nonnull align 16 dereferenceable(300) %7, i8 0, i64 300, i1 false)
  %8 = getelementptr inbounds [300 x i8], [300 x i8]* %3, i64 0, i64 0
  call void @llvm.lifetime.start.p0i8(i64 300, i8* nonnull %8) #7
  call void @llvm.memset.p0i8.i64(i8* noundef nonnull align 16 dereferenceable(300) %8, i8 0, i64 300, i1 false)
  %9 = getelementptr inbounds [300 x i8], [300 x i8]* %5, i64 0, i64 0
  call void @llvm.lifetime.start.p0i8(i64 300, i8* nonnull %9) #7
  call void @llvm.memset.p0i8.i64(i8* noundef nonnull align 16 dereferenceable(300) %9, i8 0, i64 300, i1 false)
  %10 = call i32 (i8*, ...) bitcast (i32 (...)* @gets to i32 (i8*, ...)*)(i8* nonnull %6) #7
  %11 = call i32 (i8*, ...) bitcast (i32 (...)* @gets to i32 (i8*, ...)*)(i8* nonnull %7) #7
  %12 = call i64 @strlen(i8* noundef nonnull %7) #8
  %13 = trunc i64 %12 to i32
  %14 = call i32 (i8*, ...) bitcast (i32 (...)* @gets to i32 (i8*, ...)*)(i8* nonnull %8) #7
  %15 = call i64 @strlen(i8* noundef nonnull %8) #8
  %16 = trunc i64 %15 to i32
  %17 = load i8, i8* %6, align 16, !tbaa !5
  %18 = icmp eq i8 %17, 0
  br i1 %18, label %71, label %19

19:                                               ; preds = %0
  %20 = icmp sgt i32 %13, 0
  br i1 %20, label %21, label %45

21:                                               ; preds = %19
  %22 = and i64 %12, 4294967295
  br label %23

23:                                               ; preds = %21, %37
  %24 = phi i64 [ 0, %21 ], [ %39, %37 ]
  %25 = phi i8 [ %17, %21 ], [ %41, %37 ]
  br label %28

26:                                               ; preds = %28
  %27 = icmp eq i64 %36, %22
  br i1 %27, label %43, label %28, !llvm.loop !8

28:                                               ; preds = %23, %26
  %29 = phi i64 [ 0, %23 ], [ %36, %26 ]
  %30 = add nuw nsw i64 %29, %24
  %31 = getelementptr inbounds [300 x i8], [300 x i8]* %1, i64 0, i64 %30
  %32 = load i8, i8* %31, align 1, !tbaa !5
  %33 = getelementptr inbounds [300 x i8], [300 x i8]* %2, i64 0, i64 %29
  %34 = load i8, i8* %33, align 1, !tbaa !5
  %35 = icmp eq i8 %32, %34
  %36 = add nuw nsw i64 %29, 1
  br i1 %35, label %26, label %37

37:                                               ; preds = %28
  %38 = getelementptr inbounds [300 x i8], [300 x i8]* %5, i64 0, i64 %24
  store i8 %25, i8* %38, align 1, !tbaa !5
  %39 = add nuw i64 %24, 1
  %40 = getelementptr inbounds [300 x i8], [300 x i8]* %1, i64 0, i64 %39
  %41 = load i8, i8* %40, align 1, !tbaa !5
  %42 = icmp eq i8 %41, 0
  br i1 %42, label %71, label %23, !llvm.loop !10

43:                                               ; preds = %26
  %44 = trunc i64 %24 to i32
  br label %45

45:                                               ; preds = %43, %19
  %46 = phi i32 [ 0, %19 ], [ %44, %43 ]
  %47 = icmp sgt i32 %16, 0
  br i1 %47, label %48, label %52

48:                                               ; preds = %45
  %49 = zext i32 %46 to i64
  %50 = getelementptr [300 x i8], [300 x i8]* %5, i64 0, i64 %49
  %51 = and i64 %15, 4294967295
  call void @llvm.memcpy.p0i8.p0i8.i64(i8* align 1 %50, i8* nonnull align 16 %4, i64 %51, i1 false)
  br label %52

52:                                               ; preds = %48, %45
  %53 = add i32 %46, %13
  %54 = sext i32 %53 to i64
  %55 = getelementptr inbounds [300 x i8], [300 x i8]* %1, i64 0, i64 %54
  %56 = load i8, i8* %55, align 1, !tbaa !5
  %57 = icmp eq i8 %56, 0
  br i1 %57, label %71, label %58

58:                                               ; preds = %52
  %59 = add i32 %46, %16
  %60 = sext i32 %59 to i64
  br label %61

61:                                               ; preds = %58, %61
  %62 = phi i64 [ %54, %58 ], [ %67, %61 ]
  %63 = phi i64 [ %60, %58 ], [ %66, %61 ]
  %64 = phi i8 [ %56, %58 ], [ %69, %61 ]
  %65 = getelementptr inbounds [300 x i8], [300 x i8]* %5, i64 0, i64 %63
  store i8 %64, i8* %65, align 1, !tbaa !5
  %66 = add i64 %63, 1
  %67 = add i64 %62, 1
  %68 = getelementptr inbounds [300 x i8], [300 x i8]* %1, i64 0, i64 %67
  %69 = load i8, i8* %68, align 1, !tbaa !5
  %70 = icmp eq i8 %69, 0
  br i1 %70, label %71, label %61, !llvm.loop !11

71:                                               ; preds = %37, %61, %0, %52
  %72 = call i32 (i8*, ...) @printf(i8* nonnull dereferenceable(1) getelementptr inbounds ([3 x i8], [3 x i8]* @.str, i64 0, i64 0), i8* nonnull %9)
  call void @llvm.lifetime.end.p0i8(i64 300, i8* nonnull %9) #7
  call void @llvm.lifetime.end.p0i8(i64 300, i8* nonnull %8) #7
  call void @llvm.lifetime.end.p0i8(i64 300, i8* nonnull %7) #7
  call void @llvm.lifetime.end.p0i8(i64 300, i8* nonnull %6) #7
  ret i32 0
}

; Function Attrs: argmemonly mustprogress nofree nosync nounwind willreturn
declare void @llvm.lifetime.start.p0i8(i64 immarg, i8* nocapture) #1

; Function Attrs: argmemonly mustprogress nofree nounwind willreturn writeonly
declare void @llvm.memset.p0i8.i64(i8* nocapture writeonly, i8, i64, i1 immarg) #2

declare i32 @gets(...) local_unnamed_addr #3

; Function Attrs: argmemonly mustprogress nofree nounwind readonly willreturn
declare i64 @strlen(i8* nocapture) local_unnamed_addr #4

; Function Attrs: nofree nounwind
declare noundef i32 @printf(i8* nocapture noundef readonly, ...) local_unnamed_addr #5

; Function Attrs: argmemonly mustprogress nofree nosync nounwind willreturn
declare void @llvm.lifetime.end.p0i8(i64 immarg, i8* nocapture) #1

; Function Attrs: argmemonly nofree nounwind willreturn
declare void @llvm.memcpy.p0i8.p0i8.i64(i8* noalias nocapture writeonly, i8* noalias nocapture readonly, i64, i1 immarg) #6


!llvm.module.flags = !{!0, !1, !2, !3}
!llvm.ident = !{!4}

!0 = !{i32 1, !"wchar_size", i32 4}
!1 = !{i32 7, !"PIC Level", i32 2}
!2 = !{i32 7, !"PIE Level", i32 2}
!3 = !{i32 7, !"uwtable", i32 1}
!4 = !{!"clang version 13.0.0"}
!5 = !{!6, !6, i64 0}
!6 = !{!"omnipotent char", !7, i64 0}
!7 = !{!"Simple C/C++ TBAA"}
!8 = distinct !{!8, !9}
!9 = !{!"llvm.loop.mustprogress"}
!10 = distinct !{!10, !9}
!11 = distinct !{!11, !9}
